(lp0
(I334
(lp1
(F67.0
F74.0
tp2
a(F72.0
F73.0
tp3
atp4
a(I177
(lp5
(F50.0
F18.0
tp6
atp7
a(I403
(lp8
(F78.0
F38.0
tp9
atp10
a(I42
(lp11
(F25.0
F37.0
tp12
a(F6.0
F42.0
tp13
a(F8.0
F51.0
tp14
atp15
a(I422
(lp16
(F39.0
F59.0
tp17
atp18
a(I488
(lp19
(F44.0
F60.0
tp20
atp21
a(I548
(lp22
(F36.0
F44.0
tp23
atp24
a(I375
(lp25
(F52.0
F43.0
tp26
atp27
a(I0
(lp28
(I0
I0
tp29
atp30
a(I64
(lp31
(F20.0
F96.0
tp32
a(F32.0
F82.0
tp33
atp34
a(I187
(lp35
(F10.0
F33.0
tp36
a(F29.0
F29.0
tp37
atp38
a(I15
(lp39
(F41.0
F82.0
tp40
atp41
a.