(lp0
(I334
(F67.0
F74.0
tp1
tp2
a(I177
(F50.0
F118.0
tp3
tp4
a(I403
(F78.0
F238.0
tp5
tp6
a(I42
(F25.0
F337.0
tp7
tp8
a(I422
(F139.0
F59.0
tp9
tp10
a(I488
(F144.0
F160.0
tp11
tp12
a(I548
(F136.0
F244.0
tp13
tp14
a(I375
(F152.0
F343.0
tp15
tp16
a(I0
(I200
I0
tp17
tp18
a(I64
(F220.0
F196.0
tp19
tp20
a(I187
(F210.0
F233.0
tp21
tp22
a(I15
(F241.0
F382.0
tp23
tp24
a.